target datalayout = "e-m:e-p270:32:32-p271:32:32-p272:64:64-i64:64-i128:128-f80:128-n8:16:32:64-S128"
target triple = "x86_64-pc-linux-gnu"

%union.ListCell = type { ptr }
%struct.PlannerInfo = type { i32, ptr, ptr, i32, ptr, ptr, ptr, ptr, i32, ptr, ptr, ptr, ptr, ptr, ptr, ptr, ptr, i32, ptr, ptr, ptr, ptr, ptr, i8, ptr, ptr, ptr, ptr, ptr, i32, ptr, ptr, ptr, ptr, ptr, ptr, ptr, i32, ptr, ptr, ptr, i32, ptr, ptr, ptr, ptr, ptr, ptr, [8 x ptr], [8 x ptr], ptr, ptr, ptr, ptr, ptr, ptr, ptr, double, double, double, i32, i8, i8, i8, i8, i8, i8, i8, i32, ptr, ptr, i32, i8, i8, i32, ptr, ptr, ptr, ptr, ptr, ptr, i8, ptr }
%struct.Query = type { i32, i32, i32, i64, i8, ptr, i32, i8, i8, i8, i8, i8, i8, i8, i8, i8, i8, i8, ptr, ptr, ptr, ptr, ptr, i32, ptr, ptr, i32, ptr, ptr, ptr, ptr, ptr, i8, ptr, ptr, ptr, ptr, ptr, ptr, ptr, i32, ptr, ptr, ptr, ptr, i32, i32 }
%struct.List = type { i32, i32, i32, ptr, [0 x %union.ListCell] }
%struct.Expr = type { i32 }
%struct.Node = type { i32 }
%struct.SubLink = type { %struct.Expr, i32, i32, ptr, ptr, ptr, i32 }
%struct.JoinExpr = type { i32, i32, i8, ptr, ptr, ptr, ptr, ptr, ptr, i32 }
%struct.FromExpr = type { i32, ptr, ptr }

; Function Attrs: inlinehint nounwind uwtable
define internal ptr @list_nth_cell(ptr noundef %0, i32 noundef %1) #5 {
  %3 = alloca ptr, align 8
  %4 = alloca i32, align 4
  store ptr %0, ptr %3, align 8
  store i32 %1, ptr %4, align 4
  %5 = load ptr, ptr %3, align 8
  %6 = getelementptr inbounds nuw %struct.List, ptr %5, i32 0, i32 3
  %7 = load ptr, ptr %6, align 8
  %8 = load i32, ptr %4, align 4
  %9 = sext i32 %8 to i64
  %10 = getelementptr inbounds %union.ListCell, ptr %7, i64 %9
  ret ptr %10
}

; Function Attrs: inlinehint nounwind uwtable
define internal ptr @newNode(i64 noundef %0, i32 noundef %1) #5 {
  %3 = alloca i64, align 8
  %4 = alloca i32, align 4
  %5 = alloca ptr, align 8
  store i64 %0, ptr %3, align 8
  store i32 %1, ptr %4, align 4
  call void @llvm.lifetime.start.p0(i64 8, ptr %5) #8
  %6 = load i64, ptr %3, align 8
  %7 = call ptr @palloc0(i64 noundef %6)
  store ptr %7, ptr %5, align 8
  %8 = load i32, ptr %4, align 4
  %9 = load ptr, ptr %5, align 8
  %10 = getelementptr inbounds nuw %struct.Node, ptr %9, i32 0, i32 0
  store i32 %8, ptr %10, align 4
  %11 = load ptr, ptr %5, align 8
  call void @llvm.lifetime.end.p0(i64 8, ptr %5) #8
  ret ptr %11
}

; Function Attrs: inlinehint nounwind uwtable
define internal i32 @list_length(ptr noundef %0) #5 {
  %2 = alloca ptr, align 8
  store ptr %0, ptr %2, align 8
  %3 = load ptr, ptr %2, align 8
  %4 = icmp ne ptr %3, null
  br i1 %4, label %5, label %9

5:                                                ; preds = %1
  %6 = load ptr, ptr %2, align 8
  %7 = getelementptr inbounds nuw %struct.List, ptr %6, i32 0, i32 1
  %8 = load i32, ptr %7, align 4
  br label %10

9:                                                ; preds = %1
  br label %10

10:                                               ; preds = %9, %5
  %11 = phi i32 [ %8, %5 ], [ 0, %9 ]
  ret i32 %11
}

; Function Attrs: nounwind uwtable
define dso_local ptr @convert_EXISTS_sublink_to_join(ptr noundef %0, ptr noundef %1, i1 noundef zeroext %2, ptr noundef %3) #0 {
  %5 = alloca ptr, align 8
  %6 = alloca ptr, align 8
  %7 = alloca ptr, align 8
  %8 = alloca i8, align 1
  %9 = alloca ptr, align 8
  %10 = alloca ptr, align 8
  %11 = alloca ptr, align 8
  %12 = alloca ptr, align 8
  %13 = alloca ptr, align 8
  %14 = alloca i32, align 4
  %15 = alloca i32, align 4
  %16 = alloca ptr, align 8
  %17 = alloca ptr, align 8
  %18 = alloca i32, align 4
  store ptr %0, ptr %6, align 8
  store ptr %1, ptr %7, align 8
  %19 = zext i1 %2 to i8
  store i8 %19, ptr %8, align 1
  store ptr %3, ptr %9, align 8
  call void @llvm.lifetime.start.p0(i64 8, ptr %10) #8
  call void @llvm.lifetime.start.p0(i64 8, ptr %11) #8
  %20 = load ptr, ptr %6, align 8
  %21 = getelementptr inbounds nuw %struct.PlannerInfo, ptr %20, i32 0, i32 1
  %22 = load ptr, ptr %21, align 8
  store ptr %22, ptr %11, align 8
  call void @llvm.lifetime.start.p0(i64 8, ptr %12) #8
  %23 = load ptr, ptr %7, align 8
  %24 = getelementptr inbounds nuw %struct.SubLink, ptr %23, i32 0, i32 5
  %25 = load ptr, ptr %24, align 8
  store ptr %25, ptr %12, align 8
  call void @llvm.lifetime.start.p0(i64 8, ptr %13) #8
  call void @llvm.lifetime.start.p0(i64 4, ptr %14) #8
  call void @llvm.lifetime.start.p0(i64 4, ptr %15) #8
  call void @llvm.lifetime.start.p0(i64 8, ptr %16) #8
  call void @llvm.lifetime.start.p0(i64 8, ptr %17) #8
  %26 = load ptr, ptr %12, align 8
  %27 = getelementptr inbounds nuw %struct.Query, ptr %26, i32 0, i32 18
  %28 = load ptr, ptr %27, align 8
  %29 = icmp ne ptr %28, null
  br i1 %29, label %30, label %31

30:                                               ; preds = %4
  store ptr null, ptr %5, align 8
  store i32 1, ptr %18, align 4
  br label %151

31:                                               ; preds = %4
  %32 = load ptr, ptr %12, align 8
  %33 = call ptr @copyObjectImpl(ptr noundef %32)
  store ptr %33, ptr %12, align 8
  %34 = load ptr, ptr %6, align 8
  %35 = load ptr, ptr %12, align 8
  %36 = call zeroext i1 @simplify_EXISTS_query(ptr noundef %34, ptr noundef %35)
  br i1 %36, label %38, label %37

37:                                               ; preds = %31
  store ptr null, ptr %5, align 8
  store i32 1, ptr %18, align 4
  br label %151

38:                                               ; preds = %31
  %39 = load ptr, ptr %12, align 8
  %40 = getelementptr inbounds nuw %struct.Query, ptr %39, i32 0, i32 21
  %41 = load ptr, ptr %40, align 8
  %42 = getelementptr inbounds nuw %struct.FromExpr, ptr %41, i32 0, i32 2
  %43 = load ptr, ptr %42, align 8
  store ptr %43, ptr %13, align 8
  %44 = load ptr, ptr %12, align 8
  %45 = getelementptr inbounds nuw %struct.Query, ptr %44, i32 0, i32 21
  %46 = load ptr, ptr %45, align 8
  %47 = getelementptr inbounds nuw %struct.FromExpr, ptr %46, i32 0, i32 2
  store ptr null, ptr %47, align 8
  %48 = load ptr, ptr %12, align 8
  %49 = call zeroext i1 @contain_vars_of_level(ptr noundef %48, i32 noundef 1)
  br i1 %49, label %50, label %51

50:                                               ; preds = %38
  store ptr null, ptr %5, align 8
  store i32 1, ptr %18, align 4
  br label %151

51:                                               ; preds = %38
  %52 = load ptr, ptr %13, align 8
  %53 = call zeroext i1 @contain_vars_of_level(ptr noundef %52, i32 noundef 1)
  br i1 %53, label %55, label %54

54:                                               ; preds = %51
  store ptr null, ptr %5, align 8
  store i32 1, ptr %18, align 4
  br label %151

55:                                               ; preds = %51
  %56 = load ptr, ptr %13, align 8
  %57 = call zeroext i1 @contain_volatile_functions(ptr noundef %56)
  br i1 %57, label %58, label %59

58:                                               ; preds = %55
  store ptr null, ptr %5, align 8
  store i32 1, ptr %18, align 4
  br label %151

59:                                               ; preds = %55
  %60 = load ptr, ptr %12, align 8
  call void @replace_empty_jointree(ptr noundef %60)
  %61 = load ptr, ptr %11, align 8
  %62 = getelementptr inbounds nuw %struct.Query, ptr %61, i32 0, i32 19
  %63 = load ptr, ptr %62, align 8
  %64 = call i32 @list_length(ptr noundef %63)
  store i32 %64, ptr %14, align 4
  %65 = load ptr, ptr %12, align 8
  %66 = load i32, ptr %14, align 4
  call void @OffsetVarNodes(ptr noundef %65, i32 noundef %66, i32 noundef 0)
  %67 = load ptr, ptr %13, align 8
  %68 = load i32, ptr %14, align 4
  call void @OffsetVarNodes(ptr noundef %67, i32 noundef %68, i32 noundef 0)
  %69 = load ptr, ptr %12, align 8
  call void @IncrementVarSublevelsUp(ptr noundef %69, i32 noundef -1, i32 noundef 1)
  %70 = load ptr, ptr %13, align 8
  call void @IncrementVarSublevelsUp(ptr noundef %70, i32 noundef -1, i32 noundef 1)
  %71 = load ptr, ptr %6, align 8
  %72 = load ptr, ptr %13, align 8
  %73 = call ptr @pull_varnos(ptr noundef %71, ptr noundef %72)
  store ptr %73, ptr %16, align 8
  store ptr null, ptr %17, align 8
  store i32 -1, ptr %15, align 4
  br label %74

74:                                               ; preds = %87, %59
  %75 = load ptr, ptr %16, align 8
  %76 = load i32, ptr %15, align 4
  %77 = call i32 @bms_next_member(ptr noundef %75, i32 noundef %76)
  store i32 %77, ptr %15, align 4
  %78 = icmp sge i32 %77, 0
  br i1 %78, label %79, label %88

79:                                               ; preds = %74
  %80 = load i32, ptr %15, align 4
  %81 = load i32, ptr %14, align 4
  %82 = icmp sle i32 %80, %81
  br i1 %82, label %83, label %87

83:                                               ; preds = %79
  %84 = load ptr, ptr %17, align 8
  %85 = load i32, ptr %15, align 4
  %86 = call ptr @bms_add_member(ptr noundef %84, i32 noundef %85)
  store ptr %86, ptr %17, align 8
  br label %87

87:                                               ; preds = %83, %79
  br label %74, !llvm.loop !9

88:                                               ; preds = %74
  %89 = load ptr, ptr %16, align 8
  call void @bms_free(ptr noundef %89)
  %90 = load ptr, ptr %17, align 8
  %91 = load ptr, ptr %9, align 8
  %92 = call zeroext i1 @bms_is_subset(ptr noundef %90, ptr noundef %91)
  br i1 %92, label %94, label %93

93:                                               ; preds = %88
  store ptr null, ptr %5, align 8
  store i32 1, ptr %18, align 4
  br label %151

94:                                               ; preds = %88
  %95 = load ptr, ptr %11, align 8
  %96 = getelementptr inbounds nuw %struct.Query, ptr %95, i32 0, i32 19
  %97 = load ptr, ptr %11, align 8
  %98 = getelementptr inbounds nuw %struct.Query, ptr %97, i32 0, i32 20
  %99 = load ptr, ptr %12, align 8
  %100 = getelementptr inbounds nuw %struct.Query, ptr %99, i32 0, i32 19
  %101 = load ptr, ptr %100, align 8
  %102 = load ptr, ptr %12, align 8
  %103 = getelementptr inbounds nuw %struct.Query, ptr %102, i32 0, i32 20
  %104 = load ptr, ptr %103, align 8
  call void @CombineRangeTables(ptr noundef %96, ptr noundef %98, ptr noundef %101, ptr noundef %104)
  %105 = call ptr @newNode(i64 noundef 72, i32 noundef 64)
  store ptr %105, ptr %10, align 8
  %106 = load i8, ptr %8, align 1, !range !4, !noundef !5
  %107 = trunc i8 %106 to i1
  %108 = select i1 %107, i32 5, i32 4
  %109 = load ptr, ptr %10, align 8
  %110 = getelementptr inbounds nuw %struct.JoinExpr, ptr %109, i32 0, i32 1
  store i32 %108, ptr %110, align 4
  %111 = load ptr, ptr %10, align 8
  %112 = getelementptr inbounds nuw %struct.JoinExpr, ptr %111, i32 0, i32 2
  store i8 0, ptr %112, align 8
  %113 = load ptr, ptr %10, align 8
  %114 = getelementptr inbounds nuw %struct.JoinExpr, ptr %113, i32 0, i32 3
  store ptr null, ptr %114, align 8
  %115 = load ptr, ptr %12, align 8
  %116 = getelementptr inbounds nuw %struct.Query, ptr %115, i32 0, i32 21
  %117 = load ptr, ptr %116, align 8
  %118 = getelementptr inbounds nuw %struct.FromExpr, ptr %117, i32 0, i32 1
  %119 = load ptr, ptr %118, align 8
  %120 = call i32 @list_length(ptr noundef %119)
  %121 = icmp eq i32 %120, 1
  br i1 %121, label %122, label %132

122:                                              ; preds = %94
  %123 = load ptr, ptr %12, align 8
  %124 = getelementptr inbounds nuw %struct.Query, ptr %123, i32 0, i32 21
  %125 = load ptr, ptr %124, align 8
  %126 = getelementptr inbounds nuw %struct.FromExpr, ptr %125, i32 0, i32 1
  %127 = load ptr, ptr %126, align 8
  %128 = call ptr @list_nth_cell(ptr noundef %127, i32 noundef 0)
  %129 = load ptr, ptr %128, align 8
  %130 = load ptr, ptr %10, align 8
  %131 = getelementptr inbounds nuw %struct.JoinExpr, ptr %130, i32 0, i32 4
  store ptr %129, ptr %131, align 8
  br label %138

132:                                              ; preds = %94
  %133 = load ptr, ptr %12, align 8
  %134 = getelementptr inbounds nuw %struct.Query, ptr %133, i32 0, i32 21
  %135 = load ptr, ptr %134, align 8
  %136 = load ptr, ptr %10, align 8
  %137 = getelementptr inbounds nuw %struct.JoinExpr, ptr %136, i32 0, i32 4
  store ptr %135, ptr %137, align 8
  br label %138

138:                                              ; preds = %132, %122
  %139 = load ptr, ptr %10, align 8
  %140 = getelementptr inbounds nuw %struct.JoinExpr, ptr %139, i32 0, i32 5
  store ptr null, ptr %140, align 8
  %141 = load ptr, ptr %10, align 8
  %142 = getelementptr inbounds nuw %struct.JoinExpr, ptr %141, i32 0, i32 6
  store ptr null, ptr %142, align 8
  %143 = load ptr, ptr %13, align 8
  %144 = load ptr, ptr %10, align 8
  %145 = getelementptr inbounds nuw %struct.JoinExpr, ptr %144, i32 0, i32 7
  store ptr %143, ptr %145, align 8
  %146 = load ptr, ptr %10, align 8
  %147 = getelementptr inbounds nuw %struct.JoinExpr, ptr %146, i32 0, i32 8
  store ptr null, ptr %147, align 8
  %148 = load ptr, ptr %10, align 8
  %149 = getelementptr inbounds nuw %struct.JoinExpr, ptr %148, i32 0, i32 9
  store i32 0, ptr %149, align 8
  %150 = load ptr, ptr %10, align 8
  store ptr %150, ptr %5, align 8
  store i32 1, ptr %18, align 4
  br label %151

151:                                              ; preds = %138, %93, %58, %54, %50, %37, %30
  call void @llvm.lifetime.end.p0(i64 8, ptr %17) #8
  call void @llvm.lifetime.end.p0(i64 8, ptr %16) #8
  call void @llvm.lifetime.end.p0(i64 4, ptr %15) #8
  call void @llvm.lifetime.end.p0(i64 4, ptr %14) #8
  call void @llvm.lifetime.end.p0(i64 8, ptr %13) #8
  call void @llvm.lifetime.end.p0(i64 8, ptr %12) #8
  call void @llvm.lifetime.end.p0(i64 8, ptr %11) #8
  call void @llvm.lifetime.end.p0(i64 8, ptr %10) #8
  %152 = load ptr, ptr %5, align 8
  ret ptr %152
}