; Function Attrs: nounwind uwtable
define dso_local noundef ptr @convert_EXISTS_sublink_to_join(ptr noundef %0, ptr noundef readonly captures(none) %1, i1 noundef zeroext %2, ptr noundef %3) local_unnamed_addr #0 {
  %5 = getelementptr inbounds nuw i8, ptr %0, i64 8
  %6 = load ptr, ptr %5, align 8
  %7 = getelementptr inbounds nuw i8, ptr %1, i64 32
  %8 = load ptr, ptr %7, align 8
  %9 = getelementptr inbounds nuw i8, ptr %8, i64 56
  %10 = load ptr, ptr %9, align 8
  %.not = icmp eq ptr %10, null
  br i1 %.not, label %11, label %66

11:                                               ; preds = %4
  %12 = tail call ptr @copyObjectImpl(ptr noundef nonnull %8) #10
  %13 = tail call fastcc zeroext i1 @simplify_EXISTS_query(ptr noundef nonnull %0, ptr noundef %12)
  br i1 %13, label %14, label %66

14:                                               ; preds = %11
  %15 = getelementptr inbounds nuw i8, ptr %12, i64 80
  %16 = load ptr, ptr %15, align 8
  %17 = getelementptr inbounds nuw i8, ptr %16, i64 16
  %18 = load ptr, ptr %17, align 8
  store ptr null, ptr %17, align 8
  %19 = tail call zeroext i1 @contain_vars_of_level(ptr noundef %12, i32 noundef 1) #10
  br i1 %19, label %66, label %20

20:                                               ; preds = %14
  %21 = tail call zeroext i1 @contain_vars_of_level(ptr noundef %18, i32 noundef 1) #10
  br i1 %21, label %22, label %66

22:                                               ; preds = %20
  %23 = tail call zeroext i1 @contain_volatile_functions(ptr noundef %18) #10
  br i1 %23, label %66, label %24

24:                                               ; preds = %22
  tail call void @replace_empty_jointree(ptr noundef nonnull %12) #10
  %25 = getelementptr inbounds nuw i8, ptr %6, i64 64
  %26 = load ptr, ptr %25, align 8
  %.not.i = icmp eq ptr %26, null
  br i1 %.not.i, label %list_length.exit, label %27

27:                                               ; preds = %24
  %28 = getelementptr inbounds nuw i8, ptr %26, i64 4
  %29 = load i32, ptr %28, align 4
  br label %list_length.exit

list_length.exit:                                 ; preds = %24, %27
  %30 = phi i32 [ %29, %27 ], [ 0, %24 ]
  tail call void @OffsetVarNodes(ptr noundef nonnull %12, i32 noundef %30, i32 noundef 0) #10
  tail call void @OffsetVarNodes(ptr noundef %18, i32 noundef %30, i32 noundef 0) #10
  tail call void @IncrementVarSublevelsUp(ptr noundef nonnull %12, i32 noundef -1, i32 noundef 1) #10
  tail call void @IncrementVarSublevelsUp(ptr noundef %18, i32 noundef -1, i32 noundef 1) #10
  %31 = tail call ptr @pull_varnos(ptr noundef nonnull %0, ptr noundef %18) #10
  %32 = tail call i32 @bms_next_member(ptr noundef %31, i32 noundef -1) #10
  %33 = icmp sgt i32 %32, -1
  br i1 %33, label %.lr.ph, label %._crit_edge

.lr.ph:                                           ; preds = %list_length.exit, %37
  %34 = phi i32 [ %38, %37 ], [ %32, %list_length.exit ]
  %.056 = phi ptr [ %.1, %37 ], [ null, %list_length.exit ]
  %.not53 = icmp sgt i32 %34, %30
  br i1 %.not53, label %37, label %35

35:                                               ; preds = %.lr.ph
  %36 = tail call ptr @bms_add_member(ptr noundef %.056, i32 noundef %34) #10
  br label %37

37:                                               ; preds = %35, %.lr.ph
  %.1 = phi ptr [ %36, %35 ], [ %.056, %.lr.ph ]
  %38 = tail call i32 @bms_next_member(ptr noundef %31, i32 noundef %34) #10
  %39 = icmp sgt i32 %38, -1
  br i1 %39, label %.lr.ph, label %._crit_edge, !llvm.loop !6

._crit_edge:                                      ; preds = %37, %list_length.exit
  %.0.lcssa = phi ptr [ null, %list_length.exit ], [ %.1, %37 ]
  tail call void @bms_free(ptr noundef %31) #10
  %40 = tail call zeroext i1 @bms_is_subset(ptr noundef %.0.lcssa, ptr noundef %3) #10
  br i1 %40, label %41, label %66

41:                                               ; preds = %._crit_edge
  %42 = getelementptr inbounds nuw i8, ptr %6, i64 72
  %43 = getelementptr inbounds nuw i8, ptr %12, i64 64
  %44 = load ptr, ptr %43, align 8
  %45 = getelementptr inbounds nuw i8, ptr %12, i64 72
  %46 = load ptr, ptr %45, align 8
  tail call void @CombineRangeTables(ptr noundef nonnull %25, ptr noundef nonnull %42, ptr noundef %44, ptr noundef %46) #10
  %47 = tail call noundef ptr @palloc0(i64 noundef 72) #10
  store i32 64, ptr %47, align 4
  %48 = select i1 %2, i32 5, i32 4
  %49 = getelementptr inbounds nuw i8, ptr %47, i64 4
  store i32 %48, ptr %49, align 4
  %50 = getelementptr inbounds nuw i8, ptr %47, i64 8
  store i8 0, ptr %50, align 8
  %51 = getelementptr inbounds nuw i8, ptr %47, i64 16
  store ptr null, ptr %51, align 8
  %52 = load ptr, ptr %15, align 8
  %53 = getelementptr inbounds nuw i8, ptr %52, i64 8
  %54 = load ptr, ptr %53, align 8
  %.not.i54 = icmp eq ptr %54, null
  br i1 %.not.i54, label %list_length.exit55.thread, label %list_length.exit55

list_length.exit55:                               ; preds = %41
  %55 = getelementptr inbounds nuw i8, ptr %54, i64 4
  %56 = load i32, ptr %55, align 4
  %57 = icmp eq i32 %56, 1
  br i1 %57, label %58, label %list_length.exit55.thread

58:                                               ; preds = %list_length.exit55
  %59 = getelementptr i8, ptr %54, i64 16
  %.val = load ptr, ptr %59, align 8
  %60 = load ptr, ptr %.val, align 8
  br label %list_length.exit55.thread

list_length.exit55.thread:                        ; preds = %list_length.exit55, %41, %58
  %.sink = phi ptr [ %60, %58 ], [ %52, %41 ], [ %52, %list_length.exit55 ]
  %61 = getelementptr inbounds nuw i8, ptr %47, i64 24
  store ptr %.sink, ptr %61, align 8
  %62 = getelementptr inbounds nuw i8, ptr %47, i64 32
  %63 = getelementptr inbounds nuw i8, ptr %47, i64 48
  tail call void @llvm.memset.p0.i64(ptr noundef nonnull align 8 dereferenceable(16) %62, i8 0, i64 16, i1 false)
  store ptr %18, ptr %63, align 8
  %64 = getelementptr inbounds nuw i8, ptr %47, i64 56
  store ptr null, ptr %64, align 8
  %65 = getelementptr inbounds nuw i8, ptr %47, i64 64
  store i32 0, ptr %65, align 8
  br label %66

66:                                               ; preds = %._crit_edge, %22, %20, %14, %11, %4, %list_length.exit55.thread
  %.050 = phi ptr [ %47, %list_length.exit55.thread ], [ null, %4 ], [ null, %11 ], [ null, %14 ], [ null, %20 ], [ null, %22 ], [ null, %._crit_edge ]
  ret ptr %.050
}